; Function Attrs: mustprogress uwtable
define hidden noundef ptr @pj_calcofi(ptr noundef %0) local_unnamed_addr #0 {
  %.not = icmp eq ptr %0, null
  br i1 %.not, label %14, label %2

2:                                                ; preds = %1
  %3 = getelementptr inbounds nuw i8, ptr %0, i64 88
  store ptr null, ptr %3, align 8, !tbaa !3
  %4 = getelementptr inbounds nuw i8, ptr %0, i64 440
  store double 0.000000e+00, ptr %4, align 8, !tbaa !36
  %5 = getelementptr inbounds nuw i8, ptr %0, i64 184
  store double 1.000000e+00, ptr %5, align 8, !tbaa !37
  %6 = getelementptr inbounds nuw i8, ptr %0, i64 168
  store double 1.000000e+00, ptr %6, align 8, !tbaa !38
  %7 = getelementptr inbounds nuw i8, ptr %0, i64 456
  %8 = getelementptr inbounds nuw i8, ptr %0, i64 344
  tail call void @llvm.memset.p0.i64(ptr noundef nonnull align 8 dereferenceable(16) %7, i8 0, i64 16, i1 false)
  store i32 1, ptr %8, align 8, !tbaa !39
  %9 = getelementptr inbounds nuw i8, ptr %0, i64 216
  %10 = load double, ptr %9, align 8, !tbaa !40
  %11 = fcmp une double %10, 0.000000e+00
  %_ZL17calcofi_s_inverse5PJ_XYP8PJconsts.sink.i = select i1 %11, ptr @_ZL17calcofi_e_inverse5PJ_XYP8PJconsts, ptr @_ZL17calcofi_s_inverse5PJ_XYP8PJconsts
  %_ZL17calcofi_s_forward5PJ_LPP8PJconsts.sink.i = select i1 %11, ptr @_ZL17calcofi_e_forward5PJ_LPP8PJconsts, ptr @_ZL17calcofi_s_forward5PJ_LPP8PJconsts
  %12 = getelementptr inbounds nuw i8, ptr %0, i64 112
  store ptr %_ZL17calcofi_s_inverse5PJ_XYP8PJconsts.sink.i, ptr %12, align 8, !tbaa !41
  %13 = getelementptr inbounds nuw i8, ptr %0, i64 104
  store ptr %_ZL17calcofi_s_forward5PJ_LPP8PJconsts.sink.i, ptr %13, align 8, !tbaa !42
  br label %23

14:                                               ; preds = %1
  %15 = tail call noundef ptr @_Z6pj_newv()
  %16 = icmp eq ptr %15, null
  br i1 %16, label %23, label %17

17:                                               ; preds = %14
  %18 = getelementptr inbounds nuw i8, ptr %15, i64 8
  store ptr @.str, ptr %18, align 8, !tbaa !43
  %19 = getelementptr inbounds nuw i8, ptr %15, i64 16
  store ptr @_ZL11des_calcofi, ptr %19, align 8, !tbaa !44
  %20 = getelementptr inbounds nuw i8, ptr %15, i64 360
  store i32 1, ptr %20, align 8, !tbaa !45
  %21 = getelementptr inbounds nuw i8, ptr %15, i64 380
  store i32 4, ptr %21, align 4, !tbaa !46
  %22 = getelementptr inbounds nuw i8, ptr %15, i64 384
  store i32 1, ptr %22, align 8, !tbaa !47
  br label %23

23:                                               ; preds = %14, %17, %2
  %.0 = phi ptr [ %0, %2 ], [ %15, %17 ], [ null, %14 ]
  ret ptr %.0
}